(icultural_network
CulturalNetwork
p0
(dp1
S'_clack'
p2
I00
sS'_index_ready_to_learn'
p3
I0
sS'group_list'
p4
(lp5
(icultural_network
CulturalGroup
p6
(dp7
S'_index_bip'
p8
I0
sS'group'
p9
(lp10
sba(icultural_network
CulturalGroup
p11
(dp12
g8
I0
sg9
(lp13
sba(icultural_network
CulturalGroup
p14
(dp15
g8
I0
sg9
(lp16
sba(icultural_network
CulturalGroup
p17
(dp18
g8
I0
sg9
(lp19
sba(icultural_network
CulturalGroup
p20
(dp21
g8
I0
sg9
(lp22
sba(icultural_network
CulturalGroup
p23
(dp24
g8
I0
sg9
(lp25
sba(icultural_network
CulturalGroup
p26
(dp27
g8
I0
sg9
(lp28
sba(icultural_network
CulturalGroup
p29
(dp30
g8
I0
sg9
(lp31
sba(icultural_network
CulturalGroup
p32
(dp33
g8
I0
sg9
(lp34
sba(icultural_network
CulturalGroup
p35
(dp36
g8
I0
sg9
(lp37
sba(icultural_network
CulturalGroup
p38
(dp39
g8
I0
sg9
(lp40
sba(icultural_network
CulturalGroup
p41
(dp42
g8
I0
sg9
(lp43
sba(icultural_network
CulturalGroup
p44
(dp45
g8
I0
sg9
(lp46
sba(icultural_network
CulturalGroup
p47
(dp48
g8
I0
sg9
(lp49
sba(icultural_network
CulturalGroup
p50
(dp51
g8
I0
sg9
(lp52
sba(icultural_network
CulturalGroup
p53
(dp54
g8
I0
sg9
(lp55
sba(icultural_network
CulturalGroup
p56
(dp57
g8
I0
sg9
(lp58
sba(icultural_network
CulturalGroup
p59
(dp60
g8
I0
sg9
(lp61
sba(icultural_network
CulturalGroup
p62
(dp63
g8
I0
sg9
(lp64
sba(icultural_network
CulturalGroup
p65
(dp66
g8
I0
sg9
(lp67
sba(icultural_network
CulturalGroup
p68
(dp69
g8
I0
sg9
(lp70
sba(icultural_network
CulturalGroup
p71
(dp72
g8
I0
sg9
(lp73
sba(icultural_network
CulturalGroup
p74
(dp75
g8
I0
sg9
(lp76
sba(icultural_network
CulturalGroup
p77
(dp78
g8
I0
sg9
(lp79
sba(icultural_network
CulturalGroup
p80
(dp81
g8
I0
sg9
(lp82
sba(icultural_network
CulturalGroup
p83
(dp84
g8
I0
sg9
(lp85
sba(icultural_network
CulturalGroup
p86
(dp87
g8
I0
sg9
(lp88
sba(icultural_network
CulturalGroup
p89
(dp90
g8
I0
sg9
(lp91
sba(icultural_network
CulturalGroup
p92
(dp93
g8
I0
sg9
(lp94
sba(icultural_network
CulturalGroup
p95
(dp96
g8
I0
sg9
(lp97
sba(icultural_network
CulturalGroup
p98
(dp99
g8
I0
sg9
(lp100
sba(icultural_network
CulturalGroup
p101
(dp102
g8
I0
sg9
(lp103
sba(icultural_network
CulturalGroup
p104
(dp105
g8
I0
sg9
(lp106
sba(icultural_network
CulturalGroup
p107
(dp108
g8
I0
sg9
(lp109
sba(icultural_network
CulturalGroup
p110
(dp111
g8
I0
sg9
(lp112
sba(icultural_network
CulturalGroup
p113
(dp114
g8
I0
sg9
(lp115
sba(icultural_network
CulturalGroup
p116
(dp117
g8
I0
sg9
(lp118
sba(icultural_network
CulturalGroup
p119
(dp120
g8
I0
sg9
(lp121
sba(icultural_network
CulturalGroup
p122
(dp123
g8
I0
sg9
(lp124
sba(icultural_network
CulturalGroup
p125
(dp126
g8
I0
sg9
(lp127
sba(icultural_network
CulturalGroup
p128
(dp129
g8
I0
sg9
(lp130
sba(icultural_network
CulturalGroup
p131
(dp132
g8
I0
sg9
(lp133
sba(icultural_network
CulturalGroup
p134
(dp135
g8
I0
sg9
(lp136
sba(icultural_network
CulturalGroup
p137
(dp138
g8
I0
sg9
(lp139
sba(icultural_network
CulturalGroup
p140
(dp141
g8
I0
sg9
(lp142
sba(icultural_network
CulturalGroup
p143
(dp144
g8
I0
sg9
(lp145
sba(icultural_network
CulturalGroup
p146
(dp147
g8
I0
sg9
(lp148
sba(icultural_network
CulturalGroup
p149
(dp150
g8
I0
sg9
(lp151
sba(icultural_network
CulturalGroup
p152
(dp153
g8
I0
sg9
(lp154
sba(icultural_network
CulturalGroup
p155
(dp156
g8
I0
sg9
(lp157
sba(icultural_network
CulturalGroup
p158
(dp159
g8
I0
sg9
(lp160
sba(icultural_network
CulturalGroup
p161
(dp162
g8
I0
sg9
(lp163
sba(icultural_network
CulturalGroup
p164
(dp165
g8
I0
sg9
(lp166
sba(icultural_network
CulturalGroup
p167
(dp168
g8
I0
sg9
(lp169
sba(icultural_network
CulturalGroup
p170
(dp171
g8
I0
sg9
(lp172
sba(icultural_network
CulturalGroup
p173
(dp174
g8
I0
sg9
(lp175
sba(icultural_network
CulturalGroup
p176
(dp177
g8
I0
sg9
(lp178
sba(icultural_network
CulturalGroup
p179
(dp180
g8
I0
sg9
(lp181
sba(icultural_network
CulturalGroup
p182
(dp183
g8
I0
sg9
(lp184
sba(icultural_network
CulturalGroup
p185
(dp186
g8
I0
sg9
(lp187
sba(icultural_network
CulturalGroup
p188
(dp189
g8
I0
sg9
(lp190
sba(icultural_network
CulturalGroup
p191
(dp192
g8
I0
sg9
(lp193
sba(icultural_network
CulturalGroup
p194
(dp195
g8
I0
sg9
(lp196
sba(icultural_network
CulturalGroup
p197
(dp198
g8
I0
sg9
(lp199
sba(icultural_network
CulturalGroup
p200
(dp201
g8
I0
sg9
(lp202
sba(icultural_network
CulturalGroup
p203
(dp204
g8
I0
sg9
(lp205
sba(icultural_network
CulturalGroup
p206
(dp207
g8
I0
sg9
(lp208
sba(icultural_network
CulturalGroup
p209
(dp210
g8
I0
sg9
(lp211
sba(icultural_network
CulturalGroup
p212
(dp213
g8
I0
sg9
(lp214
sba(icultural_network
CulturalGroup
p215
(dp216
g8
I0
sg9
(lp217
sba(icultural_network
CulturalGroup
p218
(dp219
g8
I0
sg9
(lp220
sba(icultural_network
CulturalGroup
p221
(dp222
g8
I0
sg9
(lp223
sba(icultural_network
CulturalGroup
p224
(dp225
g8
I0
sg9
(lp226
sba(icultural_network
CulturalGroup
p227
(dp228
g8
I0
sg9
(lp229
sba(icultural_network
CulturalGroup
p230
(dp231
g8
I0
sg9
(lp232
sba(icultural_network
CulturalGroup
p233
(dp234
g8
I0
sg9
(lp235
sba(icultural_network
CulturalGroup
p236
(dp237
g8
I0
sg9
(lp238
sba(icultural_network
CulturalGroup
p239
(dp240
g8
I0
sg9
(lp241
sba(icultural_network
CulturalGroup
p242
(dp243
g8
I0
sg9
(lp244
sba(icultural_network
CulturalGroup
p245
(dp246
g8
I0
sg9
(lp247
sba(icultural_network
CulturalGroup
p248
(dp249
g8
I0
sg9
(lp250
sba(icultural_network
CulturalGroup
p251
(dp252
g8
I0
sg9
(lp253
sba(icultural_network
CulturalGroup
p254
(dp255
g8
I0
sg9
(lp256
sba(icultural_network
CulturalGroup
p257
(dp258
g8
I0
sg9
(lp259
sba(icultural_network
CulturalGroup
p260
(dp261
g8
I0
sg9
(lp262
sba(icultural_network
CulturalGroup
p263
(dp264
g8
I0
sg9
(lp265
sba(icultural_network
CulturalGroup
p266
(dp267
g8
I0
sg9
(lp268
sba(icultural_network
CulturalGroup
p269
(dp270
g8
I0
sg9
(lp271
sba(icultural_network
CulturalGroup
p272
(dp273
g8
I0
sg9
(lp274
sba(icultural_network
CulturalGroup
p275
(dp276
g8
I0
sg9
(lp277
sba(icultural_network
CulturalGroup
p278
(dp279
g8
I0
sg9
(lp280
sba(icultural_network
CulturalGroup
p281
(dp282
g8
I0
sg9
(lp283
sba(icultural_network
CulturalGroup
p284
(dp285
g8
I0
sg9
(lp286
sba(icultural_network
CulturalGroup
p287
(dp288
g8
I0
sg9
(lp289
sba(icultural_network
CulturalGroup
p290
(dp291
g8
I0
sg9
(lp292
sba(icultural_network
CulturalGroup
p293
(dp294
g8
I0
sg9
(lp295
sba(icultural_network
CulturalGroup
p296
(dp297
g8
I0
sg9
(lp298
sba(icultural_network
CulturalGroup
p299
(dp300
g8
I0
sg9
(lp301
sba(icultural_network
CulturalGroup
p302
(dp303
g8
I0
sg9
(lp304
sba(icultural_network
CulturalGroup
p305
(dp306
g8
I0
sg9
(lp307
sbasS'_recognized_indexes'
p308
(lp309
sb.