(idecisions_block
DecisionsBlock
p0
(dp1
S'input_memories'
p2
(lp3
(icultural_network
CulturalGroup
p4
(dp5
S'_index_bip'
p6
I1
sS'group'
p7
(lp8
ccopy_reg
_reconstructor
p9
(ccultural_network
CulturalNeuron
p10
cdill.dill
_load_type
p11
(S'ObjectType'
p12
tp13
Rp14
Ntp15
Rp16
(dp17
S'_knowledge'
p18
I3
sS'_has_knowledge'
p19
I01
sbag9
(g10
g14
Ntp20
Rp21
(dp22
g18
(iinternal_state
InternalState
p23
(dp24
S'culture'
p25
F0.4975369458128079
sS'biology'
p26
F1.0
sS'feelings'
p27
F0.49261083743842365
sbsg19
I01
sbasbasS'unconscious_block'
p28
(iunconscious_filtering_block
UnconsciousFilteringBlock
p29
(dp30
S'inputs'
p31
g3
sS'internal_state'
p32
(iinternal_state
InternalState
p33
(dp34
g25
F0.558982449418146
sg26
F0.3199456706284134
sg27
F0.5614711866433276
sbsS'desired_state'
p35
(iinternal_state
InternalState
p36
(dp37
g25
F1.0
sg26
F0.4827586206896552
sg27
F1.0
sbsS'outputs'
p38
(lp39
g4
ag4
ag4
asbsg35
(lp40
F0.4827586206896552
aF1.0
aF1.0
asS'conscious_output'
p41
g4
sg32
(lp42
F0.3199456706284134
aF0.558982449418146
aF0.5614711866433276
asS'conscious_block'
p43
(iconscious_decisions_block
ConsciousDecisionsBlock
p44
(dp45
S'decision_prediction_block'
p46
(idecision_by_prediction_block
DecisionByPredictionBlock
p47
(dp48
g31
(lp49
(lp50
F0.43349753694581283
aF0.9014778325123153
aF0.5566502463054187
aa(lp51
F0.43349753694581283
aF0.9014778325123153
aF0.5566502463054187
aa(lp52
F0.43349753694581283
aF0.9014778325123153
aF0.5566502463054187
aasg35
g36
sS'predicted_outcomes'
p53
(lp54
(lp55
F0.26909956768714277
aF0.3900822076674411
aF0.4060714018602515
aa(lp56
F0.26909956768714277
aF0.3900822076674411
aF0.4060714018602515
aa(lp57
F0.26909956768714277
aF0.3900822076674411
aF0.4060714018602515
aasS'distances'
p58
(lp59
F0.6908689407616335
aF0.6908689407616335
aF0.6908689407616335
asg32
g33
sS'predictive_net'
p60
(imulticlass_single_layer_network
MulticlassSingleLayerNetwork
p61
(dp62
g31
(lp63
F0.2234831349860762
aF0.2618226178338753
aF0.2675705834239208
aF0.43349753694581283
aF0.9014778325123153
aF0.5566502463054187
asS'_activation_function'
p64
cdill.dill
_create_function
p65
(g11
(S'CodeType'
p66
tp67
Rp68
(I1
I1
I1
I83
S'|\x00\x00S'
p69
(Ntp70
(t(S'x'
p71
tp72
S'/home/breytnadine/Escritorio/brainCEMISID/multiclass_single_layer_network.py'
p73
S'<lambda>'
p74
I29
S''
p75
(t(ttp76
Rp77
cmulticlass_single_layer_network
__dict__
g74
NN(dp78
tp79
Rp80
sS'weights'
p0
(lp1
(lp2
F0.16098387441888062
aF0.06365960544134645
aF0.0996584263388131
aF0.1484792461349137
aF0.06479505198223187
aF0.09854967950059118
aa(lp3
F0.10460187995189245
aF0.17410557879206012
aF0.0984140512760509
aF0.28090937562045426
aF0.1116480574528272
aF0.07474665102888829
aa(lp4
F0.12116244265032934
aF0.024090530580441326
aF0.21954111334112955
aF0.2513857717592643
aF0.05679742792399778
aF0.21810799585512303
aasS'learning_rate'
p5
F0.1
sS'outputs'
p6
(lp7
F0.26909956768714277
aF0.3900822076674411
aF0.4060714018602515
asbsS'output'
p8
I0
sbsS'desired_state'
p9
(iinternal_state
InternalState
p10
(dp11
S'culture'
p12
F1.0
sS'biology'
p13
F0.4827586206896552
sS'feelings'
p14
F1.0
sbsS'decision'
p15
I0
sS'internal_state'
p16
(iinternal_state
InternalState
p17
(dp18
g12
F0.558982449418146
sg13
F0.3199456706284134
sg14
F0.5614711866433276
sbsS'_last_selected_input'
p19
(lp20
F1.0
aF0.4975369458128079
aF0.49261083743842365
asS'_new_inputs'
p21
I00
sS'_last_decision_internal_state'
p22
(lp23
F0.15713272056717156
aF0.11796489883629209
aF0.12294237328665515
asS'_last_decision_type'
p24
S'BIOLOGY_ALARM'
p25
sS'_inputs'
p26
(lp27
(iinternal_state
InternalState
p28
(dp29
g12
F0.4975369458128079
sg13
F1.0
sg14
F0.49261083743842365
sbag28
ag28
asbsS'unconscious_output'
p30
(lp31
(icultural_network
CulturalGroup
p32
(dp33
S'_index_bip'
p34
I1
sS'group'
p35
(lp36
ccopy_reg
_reconstructor
p37
(ccultural_network
CulturalNeuron
p38
cdill.dill
_load_type
p39
(S'ObjectType'
p40
tp41
Rp42
Ntp43
Rp44
(dp45
S'_knowledge'
p46
I3
sS'_has_knowledge'
p47
I01
sbag37
(g38
g42
Ntp48
Rp49
(dp50
g46
g28
sg47
I01
sbasbag32
ag32
asb.