(iepisodic_memories
EpisodicMemoriesBlock
p0
(dp1
S'_clack'
p2
I00
sS'_index_ready_to_learn'
p3
I5
sS'group_list'
p4
(lp5
(icultural_network
CulturalGroup
p6
(dp7
S'_index_bip'
p8
I1
sS'group'
p9
(lp10
ccopy_reg
_reconstructor
p11
(ccultural_network
CulturalNeuron
p12
cdill.dill
_load_type
p13
(S'ObjectType'
p14
tp15
Rp16
Ntp17
Rp18
(dp19
S'_knowledge'
p20
I0
sS'_has_knowledge'
p21
I01
sbag11
(g12
g16
Ntp22
Rp23
(dp24
g20
(iinternal_state
InternalState
p25
(dp26
S'culture'
p27
F0.25
sS'biology'
p28
F0.25
sS'feelings'
p29
F0.25
sbsg21
I01
sbasba(icultural_network
CulturalGroup
p30
(dp31
g8
I1
sg9
(lp32
g11
(g12
g16
Ntp33
Rp34
(dp35
g20
I1
sg21
I01
sbag11
(g12
g16
Ntp36
Rp37
(dp38
g20
(iinternal_state
InternalState
p39
(dp40
g27
F0.25
sg28
F0.25
sg29
F0.25
sbsg21
I01
sbasba(icultural_network
CulturalGroup
p41
(dp42
g8
I1
sg9
(lp43
g11
(g12
g16
Ntp44
Rp45
(dp46
g20
I2
sg21
I01
sbag11
(g12
g16
Ntp47
Rp48
(dp49
g20
(iinternal_state
InternalState
p50
(dp51
g27
F0.7093596059113301
sg28
F0.6699507389162561
sg29
F0.8325123152709359
sbsg21
I01
sbasba(icultural_network
CulturalGroup
p52
(dp53
g8
I1
sg9
(lp54
g11
(g12
g16
Ntp55
Rp56
(dp57
g20
I3
sg21
I01
sbag11
(g12
g16
Ntp58
Rp59
(dp60
g20
(iinternal_state
InternalState
p61
(dp62
g27
F0.4975369458128079
sg28
F1.0
sg29
F0.49261083743842365
sbsg21
I01
sbasba(icultural_network
CulturalGroup
p63
(dp64
g8
I0
sg9
(lp65
g11
(g12
g16
Ntp66
Rp67
(dp68
g20
I4
sg21
I01
sbag11
(g12
g16
Ntp69
Rp70
(dp71
g20
(iinternal_state
InternalState
p72
(dp73
g27
F0.9014778325123153
sg28
F0.43349753694581283
sg29
F0.5566502463054187
sbsg21
I01
sbasba(icultural_network
CulturalGroup
p74
(dp75
g8
I0
sg9
(lp76
sba(icultural_network
CulturalGroup
p77
(dp78
g8
I0
sg9
(lp79
sba(icultural_network
CulturalGroup
p80
(dp81
g8
I0
sg9
(lp82
sbasS'_recognized_indexes'
p83
(lp84
sb.