(iepisodic_memories
EpisodicMemoriesBlock
p0
(dp1
S'_clack'
p2
I00
sS'_index_ready_to_learn'
p3
I2
sS'group_list'
p4
(lp5
(icultural_network
CulturalGroup
p6
(dp7
S'_index_bip'
p8
I1
sS'group'
p9
(lp10
ccopy_reg
_reconstructor
p11
(ccultural_network
CulturalNeuron
p12
c__builtin__
object
p13
Ntp14
Rp15
(dp16
S'_knowledge'
p17
I0
sS'_has_knowledge'
p18
I01
sbag11
(g12
g13
Ntp19
Rp20
(dp21
g17
(iinternal_state
InternalState
p22
(dp23
S'culture'
p24
F0.25
sS'biology'
p25
F0.25
sS'feelings'
p26
F0.25
sbsg18
I01
sbasba(icultural_network
CulturalGroup
p27
(dp28
g8
I0
sg9
(lp29
g11
(g12
g13
Ntp30
Rp31
(dp32
g17
I1
sg18
I01
sbag11
(g12
g13
Ntp33
Rp34
(dp35
g17
(iinternal_state
InternalState
p36
(dp37
g24
F0.25
sg25
F0.25
sg26
F0.25
sbsg18
I01
sbasbasS'_recognized_indexes'
p38
(lp39
sb.