(iepisodic_memories
EpisodicMemoriesBlock
p0
(dp1
S'_clack'
p2
I00
sS'_index_ready_to_learn'
p3
I0
sS'group_list'
p4
(lp5
(icultural_network
CulturalGroup
p6
(dp7
S'_index_bip'
p8
I0
sS'group'
p9
(lp10
sbasS'_recognized_indexes'
p11
(lp12
sb.