(igeometric_neural_block
GeometricNeuralBlock
p0
(dp1
S'_operation'
p2
S'COUNT'
p3
sS'_addition_structure'
p4
(igeometric_neural_block
AdditionStructure
p5
(dp6
S'index'
p7
I0
sS'neurons'
p8
(lp9
ccopy_reg
_reconstructor
p10
(cneuron
Neuron
p11
c__builtin__
object
p12
Ntp13
Rp14
(dp15
S'_knowledge'
p16
NsS'_has_knowledge'
p17
I00
sbag10
(g11
g12
Ntp18
Rp19
(dp20
g16
Nsg17
I00
sbag10
(g11
g12
Ntp21
Rp22
(dp23
g16
Nsg17
I00
sbag10
(g11
g12
Ntp24
Rp25
(dp26
g16
Nsg17
I00
sbag10
(g11
g12
Ntp27
Rp28
(dp29
g16
Nsg17
I00
sbag10
(g11
g12
Ntp30
Rp31
(dp32
g16
Nsg17
I00
sbag10
(g11
g12
Ntp33
Rp34
(dp35
g16
Nsg17
I00
sbag10
(g11
g12
Ntp36
Rp37
(dp38
g16
Nsg17
I00
sbag10
(g11
g12
Ntp39
Rp40
(dp41
g16
Nsg17
I00
sbag10
(g11
g12
Ntp42
Rp43
(dp44
g16
Nsg17
I00
sbasS'carry_over'
p45
I00
sbsS'_op2_queue'
p46
(lp47
sS'_zero'
p48
NsS'_op1_queue'
p49
(lp50
sS'_operator'
p51
NsS'_add_operator'
p52
NsS'_order_structure'
p53
(igeometric_neural_block
QuantityOrderNetwork
p54
(dp55
S'group_list'
p56
(lp57
sS'_index'
p58
I0
sbsS'_equal_sign'
p59
Nsb.