(irel_network
RelNetwork
p0
(dp1
S'neuron_list'
p2
(lp3
ccopy_reg
_reconstructor
p4
(crel_network
RelNeuron
p5
cdill.dill
_load_type
p6
(S'ObjectType'
p7
tp8
Rp9
Ntp10
Rp11
(dp12
S'_hit'
p13
I00
sS'_knowledge'
p14
(irel_network
RelKnowledge
p15
(dp16
S'_h_id'
p17
I0
sS'_s_id'
p18
I0
sS'_weight'
p19
I0
sbsS'_has_knowledge'
p20
I01
sbag4
(g5
g9
Ntp21
Rp22
(dp23
g13
I00
sg14
(irel_network
RelKnowledge
p24
(dp25
g17
I1
sg18
I1
sg19
I0
sbsg20
I01
sbag4
(g5
g9
Ntp26
Rp27
(dp28
g13
I00
sg14
(irel_network
RelKnowledge
p29
(dp30
g17
I2
sg18
I2
sg19
I0
sbsg20
I01
sbag4
(g5
g9
Ntp31
Rp32
(dp33
g13
I01
sg14
(irel_network
RelKnowledge
p34
(dp35
g17
I3
sg18
I3
sg19
I1
sbsg20
I01
sbag4
(g5
g9
Ntp36
Rp37
(dp38
g13
I00
sg14
(irel_network
RelKnowledge
p39
(dp40
g17
I4
sg18
I4
sg19
I0
sbsg20
I01
sbag4
(g5
g9
Ntp41
Rp42
(dp43
g13
I00
sg14
Nsg20
I00
sbag4
(g5
g9
Ntp44
Rp45
(dp46
g13
I00
sg14
Nsg20
I00
sbag4
(g5
g9
Ntp47
Rp48
(dp49
g13
I00
sg14
Nsg20
I00
sbag4
(g5
g9
Ntp50
Rp51
(dp52
g13
I00
sg14
Nsg20
I00
sbag4
(g5
g9
Ntp53
Rp54
(dp55
g13
I00
sg14
Nsg20
I00
sbag4
(g5
g9
Ntp56
Rp57
(dp58
g13
I00
sg14
Nsg20
I00
sbag4
(g5
g9
Ntp59
Rp60
(dp61
g13
I00
sg14
Nsg20
I00
sbag4
(g5
g9
Ntp62
Rp63
(dp64
g13
I00
sg14
Nsg20
I00
sbag4
(g5
g9
Ntp65
Rp66
(dp67
g13
I00
sg14
Nsg20
I00
sbag4
(g5
g9
Ntp68
Rp69
(dp70
g13
I00
sg14
Nsg20
I00
sbag4
(g5
g9
Ntp71
Rp72
(dp73
g13
I00
sg14
Nsg20
I00
sbag4
(g5
g9
Ntp74
Rp75
(dp76
g13
I00
sg14
Nsg20
I00
sbag4
(g5
g9
Ntp77
Rp78
(dp79
g13
I00
sg14
Nsg20
I00
sbag4
(g5
g9
Ntp80
Rp81
(dp82
g13
I00
sg14
Nsg20
I00
sbag4
(g5
g9
Ntp83
Rp84
(dp85
g13
I00
sg14
Nsg20
I00
sbag4
(g5
g9
Ntp86
Rp87
(dp88
g13
I00
sg14
Nsg20
I00
sbag4
(g5
g9
Ntp89
Rp90
(dp91
g13
I00
sg14
Nsg20
I00
sbag4
(g5
g9
Ntp92
Rp93
(dp94
g13
I00
sg14
Nsg20
I00
sbag4
(g5
g9
Ntp95
Rp96
(dp97
g13
I00
sg14
Nsg20
I00
sbag4
(g5
g9
Ntp98
Rp99
(dp100
g13
I00
sg14
Nsg20
I00
sbag4
(g5
g9
Ntp101
Rp102
(dp103
g13
I00
sg14
Nsg20
I00
sbag4
(g5
g9
Ntp104
Rp105
(dp106
g13
I00
sg14
Nsg20
I00
sbag4
(g5
g9
Ntp107
Rp108
(dp109
g13
I00
sg14
Nsg20
I00
sbag4
(g5
g9
Ntp110
Rp111
(dp112
g13
I00
sg14
Nsg20
I00
sbag4
(g5
g9
Ntp113
Rp114
(dp115
g13
I00
sg14
Nsg20
I00
sbag4
(g5
g9
Ntp116
Rp117
(dp118
g13
I00
sg14
Nsg20
I00
sbag4
(g5
g9
Ntp119
Rp120
(dp121
g13
I00
sg14
Nsg20
I00
sbag4
(g5
g9
Ntp122
Rp123
(dp124
g13
I00
sg14
Nsg20
I00
sbag4
(g5
g9
Ntp125
Rp126
(dp127
g13
I00
sg14
Nsg20
I00
sbag4
(g5
g9
Ntp128
Rp129
(dp130
g13
I00
sg14
Nsg20
I00
sbag4
(g5
g9
Ntp131
Rp132
(dp133
g13
I00
sg14
Nsg20
I00
sbag4
(g5
g9
Ntp134
Rp135
(dp136
g13
I00
sg14
Nsg20
I00
sbag4
(g5
g9
Ntp137
Rp138
(dp139
g13
I00
sg14
Nsg20
I00
sbag4
(g5
g9
Ntp140
Rp141
(dp142
g13
I00
sg14
Nsg20
I00
sbag4
(g5
g9
Ntp143
Rp144
(dp145
g13
I00
sg14
Nsg20
I00
sbag4
(g5
g9
Ntp146
Rp147
(dp148
g13
I00
sg14
Nsg20
I00
sbag4
(g5
g9
Ntp149
Rp150
(dp151
g13
I00
sg14
Nsg20
I00
sbag4
(g5
g9
Ntp152
Rp153
(dp154
g13
I00
sg14
Nsg20
I00
sbag4
(g5
g9
Ntp155
Rp156
(dp157
g13
I00
sg14
Nsg20
I00
sbag4
(g5
g9
Ntp158
Rp159
(dp160
g13
I00
sg14
Nsg20
I00
sbag4
(g5
g9
Ntp161
Rp162
(dp163
g13
I00
sg14
Nsg20
I00
sbag4
(g5
g9
Ntp164
Rp165
(dp166
g13
I00
sg14
Nsg20
I00
sbag4
(g5
g9
Ntp167
Rp168
(dp169
g13
I00
sg14
Nsg20
I00
sbag4
(g5
g9
Ntp170
Rp171
(dp172
g13
I00
sg14
Nsg20
I00
sbag4
(g5
g9
Ntp173
Rp174
(dp175
g13
I00
sg14
Nsg20
I00
sbag4
(g5
g9
Ntp176
Rp177
(dp178
g13
I00
sg14
Nsg20
I00
sbag4
(g5
g9
Ntp179
Rp180
(dp181
g13
I00
sg14
Nsg20
I00
sbag4
(g5
g9
Ntp182
Rp183
(dp184
g13
I00
sg14
Nsg20
I00
sbag4
(g5
g9
Ntp185
Rp186
(dp187
g13
I00
sg14
Nsg20
I00
sbag4
(g5
g9
Ntp188
Rp189
(dp190
g13
I00
sg14
Nsg20
I00
sbag4
(g5
g9
Ntp191
Rp192
(dp193
g13
I00
sg14
Nsg20
I00
sbag4
(g5
g9
Ntp194
Rp195
(dp196
g13
I00
sg14
Nsg20
I00
sbag4
(g5
g9
Ntp197
Rp198
(dp199
g13
I00
sg14
Nsg20
I00
sbag4
(g5
g9
Ntp200
Rp201
(dp202
g13
I00
sg14
Nsg20
I00
sbag4
(g5
g9
Ntp203
Rp204
(dp205
g13
I00
sg14
Nsg20
I00
sbag4
(g5
g9
Ntp206
Rp207
(dp208
g13
I00
sg14
Nsg20
I00
sbag4
(g5
g9
Ntp209
Rp210
(dp211
g13
I00
sg14
Nsg20
I00
sbag4
(g5
g9
Ntp212
Rp213
(dp214
g13
I00
sg14
Nsg20
I00
sbag4
(g5
g9
Ntp215
Rp216
(dp217
g13
I00
sg14
Nsg20
I00
sbag4
(g5
g9
Ntp218
Rp219
(dp220
g13
I00
sg14
Nsg20
I00
sbag4
(g5
g9
Ntp221
Rp222
(dp223
g13
I00
sg14
Nsg20
I00
sbag4
(g5
g9
Ntp224
Rp225
(dp226
g13
I00
sg14
Nsg20
I00
sbag4
(g5
g9
Ntp227
Rp228
(dp229
g13
I00
sg14
Nsg20
I00
sbag4
(g5
g9
Ntp230
Rp231
(dp232
g13
I00
sg14
Nsg20
I00
sbag4
(g5
g9
Ntp233
Rp234
(dp235
g13
I00
sg14
Nsg20
I00
sbag4
(g5
g9
Ntp236
Rp237
(dp238
g13
I00
sg14
Nsg20
I00
sbag4
(g5
g9
Ntp239
Rp240
(dp241
g13
I00
sg14
Nsg20
I00
sbag4
(g5
g9
Ntp242
Rp243
(dp244
g13
I00
sg14
Nsg20
I00
sbag4
(g5
g9
Ntp245
Rp246
(dp247
g13
I00
sg14
Nsg20
I00
sbag4
(g5
g9
Ntp248
Rp249
(dp250
g13
I00
sg14
Nsg20
I00
sbag4
(g5
g9
Ntp251
Rp252
(dp253
g13
I00
sg14
Nsg20
I00
sbag4
(g5
g9
Ntp254
Rp255
(dp256
g13
I00
sg14
Nsg20
I00
sbag4
(g5
g9
Ntp257
Rp258
(dp259
g13
I00
sg14
Nsg20
I00
sbag4
(g5
g9
Ntp260
Rp261
(dp262
g13
I00
sg14
Nsg20
I00
sbag4
(g5
g9
Ntp263
Rp264
(dp265
g13
I00
sg14
Nsg20
I00
sbag4
(g5
g9
Ntp266
Rp267
(dp268
g13
I00
sg14
Nsg20
I00
sbag4
(g5
g9
Ntp269
Rp270
(dp271
g13
I00
sg14
Nsg20
I00
sbag4
(g5
g9
Ntp272
Rp273
(dp274
g13
I00
sg14
Nsg20
I00
sbag4
(g5
g9
Ntp275
Rp276
(dp277
g13
I00
sg14
Nsg20
I00
sbag4
(g5
g9
Ntp278
Rp279
(dp280
g13
I00
sg14
Nsg20
I00
sbag4
(g5
g9
Ntp281
Rp282
(dp283
g13
I00
sg14
Nsg20
I00
sbag4
(g5
g9
Ntp284
Rp285
(dp286
g13
I00
sg14
Nsg20
I00
sbag4
(g5
g9
Ntp287
Rp288
(dp289
g13
I00
sg14
Nsg20
I00
sbag4
(g5
g9
Ntp290
Rp291
(dp292
g13
I00
sg14
Nsg20
I00
sbag4
(g5
g9
Ntp293
Rp294
(dp295
g13
I00
sg14
Nsg20
I00
sbag4
(g5
g9
Ntp296
Rp297
(dp298
g13
I00
sg14
Nsg20
I00
sbag4
(g5
g9
Ntp299
Rp300
(dp301
g13
I00
sg14
Nsg20
I00
sbag4
(g5
g9
Ntp302
Rp303
(dp304
g13
I00
sg14
Nsg20
I00
sbag4
(g5
g9
Ntp305
Rp306
(dp307
g13
I00
sg14
Nsg20
I00
sbag4
(g5
g9
Ntp308
Rp309
(dp310
g13
I00
sg14
Nsg20
I00
sbag4
(g5
g9
Ntp311
Rp312
(dp313
g13
I00
sg14
Nsg20
I00
sbag4
(g5
g9
Ntp314
Rp315
(dp316
g13
I00
sg14
Nsg20
I00
sbag4
(g5
g9
Ntp317
Rp318
(dp319
g13
I00
sg14
Nsg20
I00
sbag4
(g5
g9
Ntp320
Rp321
(dp322
g13
I00
sg14
Nsg20
I00
sbag4
(g5
g9
Ntp323
Rp324
(dp325
g13
I00
sg14
Nsg20
I00
sbasS'_index_ready_to_learn'
p326
I5
sb.