(irel_network
RelNetwork
p0
(dp1
S'neuron_list'
p2
(lp3
ccopy_reg
_reconstructor
p4
(crel_network
RelNeuron
p5
c__builtin__
object
p6
Ntp7
Rp8
(dp9
S'_hit'
p10
I00
sS'_knowledge'
p11
(irel_network
RelKnowledge
p12
(dp13
S'_h_id'
p14
I0
sS'_s_id'
p15
I0
sS'_weight'
p16
I0
sbsS'_has_knowledge'
p17
I01
sbag4
(g5
g6
Ntp18
Rp19
(dp20
g10
I00
sg11
(irel_network
RelKnowledge
p21
(dp22
g14
I1
sg15
I1
sg16
I0
sbsg17
I01
sbag4
(g5
g6
Ntp23
Rp24
(dp25
g10
I00
sg11
Nsg17
I00
sbag4
(g5
g6
Ntp26
Rp27
(dp28
g10
I00
sg11
Nsg17
I00
sbag4
(g5
g6
Ntp29
Rp30
(dp31
g10
I00
sg11
Nsg17
I00
sbag4
(g5
g6
Ntp32
Rp33
(dp34
g10
I00
sg11
Nsg17
I00
sbag4
(g5
g6
Ntp35
Rp36
(dp37
g10
I00
sg11
Nsg17
I00
sbag4
(g5
g6
Ntp38
Rp39
(dp40
g10
I00
sg11
Nsg17
I00
sbag4
(g5
g6
Ntp41
Rp42
(dp43
g10
I00
sg11
Nsg17
I00
sbag4
(g5
g6
Ntp44
Rp45
(dp46
g10
I00
sg11
Nsg17
I00
sbag4
(g5
g6
Ntp47
Rp48
(dp49
g10
I00
sg11
Nsg17
I00
sbag4
(g5
g6
Ntp50
Rp51
(dp52
g10
I00
sg11
Nsg17
I00
sbag4
(g5
g6
Ntp53
Rp54
(dp55
g10
I00
sg11
Nsg17
I00
sbag4
(g5
g6
Ntp56
Rp57
(dp58
g10
I00
sg11
Nsg17
I00
sbag4
(g5
g6
Ntp59
Rp60
(dp61
g10
I00
sg11
Nsg17
I00
sbag4
(g5
g6
Ntp62
Rp63
(dp64
g10
I00
sg11
Nsg17
I00
sbag4
(g5
g6
Ntp65
Rp66
(dp67
g10
I00
sg11
Nsg17
I00
sbag4
(g5
g6
Ntp68
Rp69
(dp70
g10
I00
sg11
Nsg17
I00
sbag4
(g5
g6
Ntp71
Rp72
(dp73
g10
I00
sg11
Nsg17
I00
sbag4
(g5
g6
Ntp74
Rp75
(dp76
g10
I00
sg11
Nsg17
I00
sbag4
(g5
g6
Ntp77
Rp78
(dp79
g10
I00
sg11
Nsg17
I00
sbag4
(g5
g6
Ntp80
Rp81
(dp82
g10
I00
sg11
Nsg17
I00
sbag4
(g5
g6
Ntp83
Rp84
(dp85
g10
I00
sg11
Nsg17
I00
sbag4
(g5
g6
Ntp86
Rp87
(dp88
g10
I00
sg11
Nsg17
I00
sbag4
(g5
g6
Ntp89
Rp90
(dp91
g10
I00
sg11
Nsg17
I00
sbag4
(g5
g6
Ntp92
Rp93
(dp94
g10
I00
sg11
Nsg17
I00
sbag4
(g5
g6
Ntp95
Rp96
(dp97
g10
I00
sg11
Nsg17
I00
sbag4
(g5
g6
Ntp98
Rp99
(dp100
g10
I00
sg11
Nsg17
I00
sbag4
(g5
g6
Ntp101
Rp102
(dp103
g10
I00
sg11
Nsg17
I00
sbag4
(g5
g6
Ntp104
Rp105
(dp106
g10
I00
sg11
Nsg17
I00
sbag4
(g5
g6
Ntp107
Rp108
(dp109
g10
I00
sg11
Nsg17
I00
sbag4
(g5
g6
Ntp110
Rp111
(dp112
g10
I00
sg11
Nsg17
I00
sbag4
(g5
g6
Ntp113
Rp114
(dp115
g10
I00
sg11
Nsg17
I00
sbag4
(g5
g6
Ntp116
Rp117
(dp118
g10
I00
sg11
Nsg17
I00
sbag4
(g5
g6
Ntp119
Rp120
(dp121
g10
I00
sg11
Nsg17
I00
sbag4
(g5
g6
Ntp122
Rp123
(dp124
g10
I00
sg11
Nsg17
I00
sbag4
(g5
g6
Ntp125
Rp126
(dp127
g10
I00
sg11
Nsg17
I00
sbag4
(g5
g6
Ntp128
Rp129
(dp130
g10
I00
sg11
Nsg17
I00
sbag4
(g5
g6
Ntp131
Rp132
(dp133
g10
I00
sg11
Nsg17
I00
sbag4
(g5
g6
Ntp134
Rp135
(dp136
g10
I00
sg11
Nsg17
I00
sbag4
(g5
g6
Ntp137
Rp138
(dp139
g10
I00
sg11
Nsg17
I00
sbag4
(g5
g6
Ntp140
Rp141
(dp142
g10
I00
sg11
Nsg17
I00
sbag4
(g5
g6
Ntp143
Rp144
(dp145
g10
I00
sg11
Nsg17
I00
sbag4
(g5
g6
Ntp146
Rp147
(dp148
g10
I00
sg11
Nsg17
I00
sbag4
(g5
g6
Ntp149
Rp150
(dp151
g10
I00
sg11
Nsg17
I00
sbag4
(g5
g6
Ntp152
Rp153
(dp154
g10
I00
sg11
Nsg17
I00
sbag4
(g5
g6
Ntp155
Rp156
(dp157
g10
I00
sg11
Nsg17
I00
sbag4
(g5
g6
Ntp158
Rp159
(dp160
g10
I00
sg11
Nsg17
I00
sbag4
(g5
g6
Ntp161
Rp162
(dp163
g10
I00
sg11
Nsg17
I00
sbag4
(g5
g6
Ntp164
Rp165
(dp166
g10
I00
sg11
Nsg17
I00
sbag4
(g5
g6
Ntp167
Rp168
(dp169
g10
I00
sg11
Nsg17
I00
sbag4
(g5
g6
Ntp170
Rp171
(dp172
g10
I00
sg11
Nsg17
I00
sbag4
(g5
g6
Ntp173
Rp174
(dp175
g10
I00
sg11
Nsg17
I00
sbag4
(g5
g6
Ntp176
Rp177
(dp178
g10
I00
sg11
Nsg17
I00
sbag4
(g5
g6
Ntp179
Rp180
(dp181
g10
I00
sg11
Nsg17
I00
sbag4
(g5
g6
Ntp182
Rp183
(dp184
g10
I00
sg11
Nsg17
I00
sbag4
(g5
g6
Ntp185
Rp186
(dp187
g10
I00
sg11
Nsg17
I00
sbag4
(g5
g6
Ntp188
Rp189
(dp190
g10
I00
sg11
Nsg17
I00
sbag4
(g5
g6
Ntp191
Rp192
(dp193
g10
I00
sg11
Nsg17
I00
sbag4
(g5
g6
Ntp194
Rp195
(dp196
g10
I00
sg11
Nsg17
I00
sbag4
(g5
g6
Ntp197
Rp198
(dp199
g10
I00
sg11
Nsg17
I00
sbag4
(g5
g6
Ntp200
Rp201
(dp202
g10
I00
sg11
Nsg17
I00
sbag4
(g5
g6
Ntp203
Rp204
(dp205
g10
I00
sg11
Nsg17
I00
sbag4
(g5
g6
Ntp206
Rp207
(dp208
g10
I00
sg11
Nsg17
I00
sbag4
(g5
g6
Ntp209
Rp210
(dp211
g10
I00
sg11
Nsg17
I00
sbag4
(g5
g6
Ntp212
Rp213
(dp214
g10
I00
sg11
Nsg17
I00
sbag4
(g5
g6
Ntp215
Rp216
(dp217
g10
I00
sg11
Nsg17
I00
sbag4
(g5
g6
Ntp218
Rp219
(dp220
g10
I00
sg11
Nsg17
I00
sbag4
(g5
g6
Ntp221
Rp222
(dp223
g10
I00
sg11
Nsg17
I00
sbag4
(g5
g6
Ntp224
Rp225
(dp226
g10
I00
sg11
Nsg17
I00
sbag4
(g5
g6
Ntp227
Rp228
(dp229
g10
I00
sg11
Nsg17
I00
sbag4
(g5
g6
Ntp230
Rp231
(dp232
g10
I00
sg11
Nsg17
I00
sbag4
(g5
g6
Ntp233
Rp234
(dp235
g10
I00
sg11
Nsg17
I00
sbag4
(g5
g6
Ntp236
Rp237
(dp238
g10
I00
sg11
Nsg17
I00
sbag4
(g5
g6
Ntp239
Rp240
(dp241
g10
I00
sg11
Nsg17
I00
sbag4
(g5
g6
Ntp242
Rp243
(dp244
g10
I00
sg11
Nsg17
I00
sbag4
(g5
g6
Ntp245
Rp246
(dp247
g10
I00
sg11
Nsg17
I00
sbag4
(g5
g6
Ntp248
Rp249
(dp250
g10
I00
sg11
Nsg17
I00
sbag4
(g5
g6
Ntp251
Rp252
(dp253
g10
I00
sg11
Nsg17
I00
sbag4
(g5
g6
Ntp254
Rp255
(dp256
g10
I00
sg11
Nsg17
I00
sbag4
(g5
g6
Ntp257
Rp258
(dp259
g10
I00
sg11
Nsg17
I00
sbag4
(g5
g6
Ntp260
Rp261
(dp262
g10
I00
sg11
Nsg17
I00
sbag4
(g5
g6
Ntp263
Rp264
(dp265
g10
I00
sg11
Nsg17
I00
sbag4
(g5
g6
Ntp266
Rp267
(dp268
g10
I00
sg11
Nsg17
I00
sbag4
(g5
g6
Ntp269
Rp270
(dp271
g10
I00
sg11
Nsg17
I00
sbag4
(g5
g6
Ntp272
Rp273
(dp274
g10
I00
sg11
Nsg17
I00
sbag4
(g5
g6
Ntp275
Rp276
(dp277
g10
I00
sg11
Nsg17
I00
sbag4
(g5
g6
Ntp278
Rp279
(dp280
g10
I00
sg11
Nsg17
I00
sbag4
(g5
g6
Ntp281
Rp282
(dp283
g10
I00
sg11
Nsg17
I00
sbag4
(g5
g6
Ntp284
Rp285
(dp286
g10
I00
sg11
Nsg17
I00
sbag4
(g5
g6
Ntp287
Rp288
(dp289
g10
I00
sg11
Nsg17
I00
sbag4
(g5
g6
Ntp290
Rp291
(dp292
g10
I00
sg11
Nsg17
I00
sbag4
(g5
g6
Ntp293
Rp294
(dp295
g10
I00
sg11
Nsg17
I00
sbag4
(g5
g6
Ntp296
Rp297
(dp298
g10
I00
sg11
Nsg17
I00
sbag4
(g5
g6
Ntp299
Rp300
(dp301
g10
I00
sg11
Nsg17
I00
sbag4
(g5
g6
Ntp302
Rp303
(dp304
g10
I00
sg11
Nsg17
I00
sbag4
(g5
g6
Ntp305
Rp306
(dp307
g10
I00
sg11
Nsg17
I00
sbag4
(g5
g6
Ntp308
Rp309
(dp310
g10
I00
sg11
Nsg17
I00
sbag4
(g5
g6
Ntp311
Rp312
(dp313
g10
I00
sg11
Nsg17
I00
sbag4
(g5
g6
Ntp314
Rp315
(dp316
g10
I00
sg11
Nsg17
I00
sbasS'_index_ready_to_learn'
p317
I2
sb.