(isensory_neural_block
RbfNetwork
p0
(dp1
S'_state'
p2
S'MISS'
p3
sS'neuron_list'
p4
(lp5
ccopy_reg
_reconstructor
p6
(csensory_neural_block
RbfNeuron
p7
cdill.dill
_load_type
p8
(S'ObjectType'
p9
tp10
Rp11
Ntp12
Rp13
(dp14
S'_degraded'
p15
I00
sS'_hit'
p16
I00
sS'_has_knowledge'
p17
I01
sS'_distance'
p18
F35.0
sS'_knowledge'
p19
(isensory_neural_block
RbfKnowledge
p20
(dp21
S'_pattern'
p22
(lp23
I0
aI12
aI1
aI0
aI0
aI8
aI0
aI0
aI0
aI8
aI0
aI0
aI0
aI8
aI1
aI0
aI0
aI8
aI0
aI0
aI0
aI0
aI0
aI0
aI0
aI0
aI0
aI0
aI0
aI0
aI0
aI0
aI0
aI0
aI0
aI0
aI0
aI0
aI0
aI0
aI0
aI0
aI0
aI0
aI0
aI0
aI0
aI0
aI0
aI0
aI0
aI0
aI0
aI0
aI0
aI0
aI0
aI0
aI0
aI0
aI0
aI0
aI0
aI0
asS'_class'
p24
S'0'
p25
sS'_set'
p26
S'NoSet'
p27
sbsS'_radius'
p28
I10
sbag6
(g7
g11
Ntp29
Rp30
(dp31
g15
I00
sg16
I00
sg17
I01
sg18
F31.0
sg19
(isensory_neural_block
RbfKnowledge
p32
(dp33
g22
(lp34
I0
aI14
aI1
aI0
aI0
aI4
aI1
aI0
aI0
aI4
aI1
aI0
aI0
aI12
aI1
aI0
aI0
aI0
aI0
aI0
aI0
aI0
aI0
aI0
aI0
aI0
aI0
aI0
aI0
aI0
aI0
aI0
aI0
aI0
aI0
aI0
aI0
aI0
aI0
aI0
aI0
aI0
aI0
aI0
aI0
aI0
aI0
aI0
aI0
aI0
aI0
aI0
aI0
aI0
aI0
aI0
aI0
aI0
aI0
aI0
aI0
aI0
aI0
aI0
asg24
S'1'
p35
sg26
S'NoSet'
p36
sbsg28
I10
sbag6
(g7
g11
Ntp37
Rp38
(dp39
g15
I00
sg16
I00
sg17
I01
sg18
F67.0
sg19
(isensory_neural_block
RbfKnowledge
p40
(dp41
g22
(lp42
I0
aI12
aI3
aI0
aI0
aI12
aI3
aI0
aI0
aI12
aI3
aI0
aI0
aI12
aI3
aI0
aI0
aI12
aI3
aI0
aI0
aI12
aI3
aI0
aI0
aI0
aI0
aI0
aI0
aI0
aI0
aI0
aI0
aI0
aI0
aI0
aI0
aI0
aI0
aI0
aI0
aI0
aI0
aI0
aI0
aI0
aI0
aI0
aI0
aI0
aI0
aI0
aI0
aI0
aI0
aI0
aI0
aI0
aI0
aI0
aI0
aI0
aI0
aI0
asg24
S'2'
p43
sg26
S'NoSet'
p44
sbsg28
I10
sbag6
(g7
g11
Ntp45
Rp46
(dp47
g15
I00
sg16
I00
sg17
I01
sg18
F24.0
sg19
(isensory_neural_block
RbfKnowledge
p48
(dp49
g22
(lp50
I0
aI12
aI1
aI0
aI0
aI12
aI1
aI0
aI0
aI12
aI1
aI0
aI0
aI0
aI0
aI0
aI0
aI0
aI0
aI0
aI0
aI0
aI0
aI0
aI0
aI0
aI0
aI0
aI0
aI0
aI0
aI0
aI0
aI0
aI0
aI0
aI0
aI0
aI0
aI0
aI0
aI0
aI0
aI0
aI0
aI0
aI0
aI0
aI0
aI0
aI0
aI0
aI0
aI0
aI0
aI0
aI0
aI0
aI0
aI0
aI0
aI0
aI0
aI0
asg24
S'3'
p51
sg26
S'NoSet'
p52
sbsg28
I10
sbag6
(g7
g11
Ntp53
Rp54
(dp55
g15
I00
sg19
(isensory_neural_block
RbfKnowledge
p56
(dp57
g22
(lp58
I0
aI12
aI7
aI0
aI0
aI8
aI3
aI0
aI0
aI0
aI1
aI0
aI0
aI0
aI0
aI0
aI0
aI0
aI0
aI0
aI0
aI0
aI0
aI0
aI0
aI0
aI0
aI0
aI0
aI0
aI0
aI0
aI0
aI0
aI0
aI0
aI0
aI0
aI0
aI0
aI0
aI0
aI0
aI0
aI0
aI0
aI0
aI0
aI0
aI0
aI0
aI0
aI0
aI0
aI0
aI0
aI0
aI0
aI0
aI0
aI0
aI0
aI0
aI0
asg24
S'4'
p59
sg26
g52
sbsg28
I10
sg17
I01
sbag6
(g7
g11
Ntp60
Rp61
(dp62
g15
I00
sg19
Nsg28
I24
sg17
I00
sbag6
(g7
g11
Ntp63
Rp64
(dp65
g15
I00
sg19
Nsg28
I24
sg17
I00
sbag6
(g7
g11
Ntp66
Rp67
(dp68
g15
I00
sg19
Nsg28
I24
sg17
I00
sbag6
(g7
g11
Ntp69
Rp70
(dp71
g15
I00
sg19
Nsg28
I24
sg17
I00
sbag6
(g7
g11
Ntp72
Rp73
(dp74
g15
I00
sg19
Nsg28
I24
sg17
I00
sbag6
(g7
g11
Ntp75
Rp76
(dp77
g15
I00
sg19
Nsg28
I24
sg17
I00
sbag6
(g7
g11
Ntp78
Rp79
(dp80
g15
I00
sg19
Nsg28
I24
sg17
I00
sbag6
(g7
g11
Ntp81
Rp82
(dp83
g15
I00
sg19
Nsg28
I24
sg17
I00
sbag6
(g7
g11
Ntp84
Rp85
(dp86
g15
I00
sg19
Nsg28
I24
sg17
I00
sbag6
(g7
g11
Ntp87
Rp88
(dp89
g15
I00
sg19
Nsg28
I24
sg17
I00
sbag6
(g7
g11
Ntp90
Rp91
(dp92
g15
I00
sg19
Nsg28
I24
sg17
I00
sbag6
(g7
g11
Ntp93
Rp94
(dp95
g15
I00
sg19
Nsg28
I24
sg17
I00
sbag6
(g7
g11
Ntp96
Rp97
(dp98
g15
I00
sg19
Nsg28
I24
sg17
I00
sbag6
(g7
g11
Ntp99
Rp100
(dp101
g15
I00
sg19
Nsg28
I24
sg17
I00
sbag6
(g7
g11
Ntp102
Rp103
(dp104
g15
I00
sg19
Nsg28
I24
sg17
I00
sbag6
(g7
g11
Ntp105
Rp106
(dp107
g15
I00
sg19
Nsg28
I24
sg17
I00
sbag6
(g7
g11
Ntp108
Rp109
(dp110
g15
I00
sg19
Nsg28
I24
sg17
I00
sbag6
(g7
g11
Ntp111
Rp112
(dp113
g15
I00
sg19
Nsg28
I24
sg17
I00
sbag6
(g7
g11
Ntp114
Rp115
(dp116
g15
I00
sg19
Nsg28
I24
sg17
I00
sbag6
(g7
g11
Ntp117
Rp118
(dp119
g15
I00
sg19
Nsg28
I24
sg17
I00
sbag6
(g7
g11
Ntp120
Rp121
(dp122
g15
I00
sg19
Nsg28
I24
sg17
I00
sbag6
(g7
g11
Ntp123
Rp124
(dp125
g15
I00
sg19
Nsg28
I24
sg17
I00
sbag6
(g7
g11
Ntp126
Rp127
(dp128
g15
I00
sg19
Nsg28
I24
sg17
I00
sbag6
(g7
g11
Ntp129
Rp130
(dp131
g15
I00
sg19
Nsg28
I24
sg17
I00
sbag6
(g7
g11
Ntp132
Rp133
(dp134
g15
I00
sg19
Nsg28
I24
sg17
I00
sbag6
(g7
g11
Ntp135
Rp136
(dp137
g15
I00
sg19
Nsg28
I24
sg17
I00
sbag6
(g7
g11
Ntp138
Rp139
(dp140
g15
I00
sg19
Nsg28
I24
sg17
I00
sbag6
(g7
g11
Ntp141
Rp142
(dp143
g15
I00
sg19
Nsg28
I24
sg17
I00
sbag6
(g7
g11
Ntp144
Rp145
(dp146
g15
I00
sg19
Nsg28
I24
sg17
I00
sbag6
(g7
g11
Ntp147
Rp148
(dp149
g15
I00
sg19
Nsg28
I24
sg17
I00
sbag6
(g7
g11
Ntp150
Rp151
(dp152
g15
I00
sg19
Nsg28
I24
sg17
I00
sbag6
(g7
g11
Ntp153
Rp154
(dp155
g15
I00
sg19
Nsg28
I24
sg17
I00
sbag6
(g7
g11
Ntp156
Rp157
(dp158
g15
I00
sg19
Nsg28
I24
sg17
I00
sbag6
(g7
g11
Ntp159
Rp160
(dp161
g15
I00
sg19
Nsg28
I24
sg17
I00
sbag6
(g7
g11
Ntp162
Rp163
(dp164
g15
I00
sg19
Nsg28
I24
sg17
I00
sbag6
(g7
g11
Ntp165
Rp166
(dp167
g15
I00
sg19
Nsg28
I24
sg17
I00
sbag6
(g7
g11
Ntp168
Rp169
(dp170
g15
I00
sg19
Nsg28
I24
sg17
I00
sbag6
(g7
g11
Ntp171
Rp172
(dp173
g15
I00
sg19
Nsg28
I24
sg17
I00
sbag6
(g7
g11
Ntp174
Rp175
(dp176
g15
I00
sg19
Nsg28
I24
sg17
I00
sbag6
(g7
g11
Ntp177
Rp178
(dp179
g15
I00
sg19
Nsg28
I24
sg17
I00
sbag6
(g7
g11
Ntp180
Rp181
(dp182
g15
I00
sg19
Nsg28
I24
sg17
I00
sbag6
(g7
g11
Ntp183
Rp184
(dp185
g15
I00
sg19
Nsg28
I24
sg17
I00
sbag6
(g7
g11
Ntp186
Rp187
(dp188
g15
I00
sg19
Nsg28
I24
sg17
I00
sbag6
(g7
g11
Ntp189
Rp190
(dp191
g15
I00
sg19
Nsg28
I24
sg17
I00
sbag6
(g7
g11
Ntp192
Rp193
(dp194
g15
I00
sg19
Nsg28
I24
sg17
I00
sbag6
(g7
g11
Ntp195
Rp196
(dp197
g15
I00
sg19
Nsg28
I24
sg17
I00
sbag6
(g7
g11
Ntp198
Rp199
(dp200
g15
I00
sg19
Nsg28
I24
sg17
I00
sbag6
(g7
g11
Ntp201
Rp202
(dp203
g15
I00
sg19
Nsg28
I24
sg17
I00
sbag6
(g7
g11
Ntp204
Rp205
(dp206
g15
I00
sg19
Nsg28
I24
sg17
I00
sbag6
(g7
g11
Ntp207
Rp208
(dp209
g15
I00
sg19
Nsg28
I24
sg17
I00
sbag6
(g7
g11
Ntp210
Rp211
(dp212
g15
I00
sg19
Nsg28
I24
sg17
I00
sbag6
(g7
g11
Ntp213
Rp214
(dp215
g15
I00
sg19
Nsg28
I24
sg17
I00
sbag6
(g7
g11
Ntp216
Rp217
(dp218
g15
I00
sg19
Nsg28
I24
sg17
I00
sbag6
(g7
g11
Ntp219
Rp220
(dp221
g15
I00
sg19
Nsg28
I24
sg17
I00
sbag6
(g7
g11
Ntp222
Rp223
(dp224
g15
I00
sg19
Nsg28
I24
sg17
I00
sbag6
(g7
g11
Ntp225
Rp226
(dp227
g15
I00
sg19
Nsg28
I24
sg17
I00
sbag6
(g7
g11
Ntp228
Rp229
(dp230
g15
I00
sg19
Nsg28
I24
sg17
I00
sbag6
(g7
g11
Ntp231
Rp232
(dp233
g15
I00
sg19
Nsg28
I24
sg17
I00
sbag6
(g7
g11
Ntp234
Rp235
(dp236
g15
I00
sg19
Nsg28
I24
sg17
I00
sbag6
(g7
g11
Ntp237
Rp238
(dp239
g15
I00
sg19
Nsg28
I24
sg17
I00
sbag6
(g7
g11
Ntp240
Rp241
(dp242
g15
I00
sg19
Nsg28
I24
sg17
I00
sbag6
(g7
g11
Ntp243
Rp244
(dp245
g15
I00
sg19
Nsg28
I24
sg17
I00
sbag6
(g7
g11
Ntp246
Rp247
(dp248
g15
I00
sg19
Nsg28
I24
sg17
I00
sbag6
(g7
g11
Ntp249
Rp250
(dp251
g15
I00
sg19
Nsg28
I24
sg17
I00
sbag6
(g7
g11
Ntp252
Rp253
(dp254
g15
I00
sg19
Nsg28
I24
sg17
I00
sbag6
(g7
g11
Ntp255
Rp256
(dp257
g15
I00
sg19
Nsg28
I24
sg17
I00
sbag6
(g7
g11
Ntp258
Rp259
(dp260
g15
I00
sg19
Nsg28
I24
sg17
I00
sbag6
(g7
g11
Ntp261
Rp262
(dp263
g15
I00
sg19
Nsg28
I24
sg17
I00
sbag6
(g7
g11
Ntp264
Rp265
(dp266
g15
I00
sg19
Nsg28
I24
sg17
I00
sbag6
(g7
g11
Ntp267
Rp268
(dp269
g15
I00
sg19
Nsg28
I24
sg17
I00
sbag6
(g7
g11
Ntp270
Rp271
(dp272
g15
I00
sg19
Nsg28
I24
sg17
I00
sbag6
(g7
g11
Ntp273
Rp274
(dp275
g15
I00
sg19
Nsg28
I24
sg17
I00
sbag6
(g7
g11
Ntp276
Rp277
(dp278
g15
I00
sg19
Nsg28
I24
sg17
I00
sbag6
(g7
g11
Ntp279
Rp280
(dp281
g15
I00
sg19
Nsg28
I24
sg17
I00
sbag6
(g7
g11
Ntp282
Rp283
(dp284
g15
I00
sg19
Nsg28
I24
sg17
I00
sbag6
(g7
g11
Ntp285
Rp286
(dp287
g15
I00
sg19
Nsg28
I24
sg17
I00
sbag6
(g7
g11
Ntp288
Rp289
(dp290
g15
I00
sg19
Nsg28
I24
sg17
I00
sbag6
(g7
g11
Ntp291
Rp292
(dp293
g15
I00
sg19
Nsg28
I24
sg17
I00
sbag6
(g7
g11
Ntp294
Rp295
(dp296
g15
I00
sg19
Nsg28
I24
sg17
I00
sbag6
(g7
g11
Ntp297
Rp298
(dp299
g15
I00
sg19
Nsg28
I24
sg17
I00
sbag6
(g7
g11
Ntp300
Rp301
(dp302
g15
I00
sg19
Nsg28
I24
sg17
I00
sbag6
(g7
g11
Ntp303
Rp304
(dp305
g15
I00
sg19
Nsg28
I24
sg17
I00
sbag6
(g7
g11
Ntp306
Rp307
(dp308
g15
I00
sg19
Nsg28
I24
sg17
I00
sbag6
(g7
g11
Ntp309
Rp310
(dp311
g15
I00
sg19
Nsg28
I24
sg17
I00
sbag6
(g7
g11
Ntp312
Rp313
(dp314
g15
I00
sg19
Nsg28
I24
sg17
I00
sbag6
(g7
g11
Ntp315
Rp316
(dp317
g15
I00
sg19
Nsg28
I24
sg17
I00
sbag6
(g7
g11
Ntp318
Rp319
(dp320
g15
I00
sg19
Nsg28
I24
sg17
I00
sbag6
(g7
g11
Ntp321
Rp322
(dp323
g15
I00
sg19
Nsg28
I24
sg17
I00
sbag6
(g7
g11
Ntp324
Rp325
(dp326
g15
I00
sg19
Nsg28
I24
sg17
I00
sbag6
(g7
g11
Ntp327
Rp328
(dp329
g15
I00
sg19
Nsg28
I24
sg17
I00
sbag6
(g7
g11
Ntp330
Rp331
(dp332
g15
I00
sg19
Nsg28
I24
sg17
I00
sbag6
(g7
g11
Ntp333
Rp334
(dp335
g15
I00
sg19
Nsg28
I24
sg17
I00
sbag6
(g7
g11
Ntp336
Rp337
(dp338
g15
I00
sg19
Nsg28
I24
sg17
I00
sbag6
(g7
g11
Ntp339
Rp340
(dp341
g15
I00
sg19
Nsg28
I24
sg17
I00
sbag6
(g7
g11
Ntp342
Rp343
(dp344
g15
I00
sg19
Nsg28
I24
sg17
I00
sbasS'_index_recognize'
p345
(lp346
sS'_index_ready_to_learn'
p347
I5
sS'_last_learned_id'
p348
I4
sb.