(isensory_neural_block
RbfNetwork
p0
(dp1
S'_state'
p2
S'MISS'
p3
sS'neuron_list'
p4
(lp5
ccopy_reg
_reconstructor
p6
(csensory_neural_block
RbfNeuron
p7
c__builtin__
object
p8
Ntp9
Rp10
(dp11
S'_degraded'
p12
I00
sS'_hit'
p13
I00
sS'_has_knowledge'
p14
I01
sS'_distance'
p15
F24.0
sS'_knowledge'
p16
(isensory_neural_block
RbfKnowledge
p17
(dp18
S'_pattern'
p19
(lp20
I0
aI12
aI1
aI0
aI0
aI8
aI0
aI0
aI0
aI8
aI0
aI0
aI0
aI8
aI1
aI0
aI0
aI8
aI0
aI0
aI0
aI0
aI0
aI0
aI0
aI0
aI0
aI0
aI0
aI0
aI0
aI0
aI0
aI0
aI0
aI0
aI0
aI0
aI0
aI0
aI0
aI0
aI0
aI0
aI0
aI0
aI0
aI0
aI0
aI0
aI0
aI0
aI0
aI0
aI0
aI0
aI0
aI0
aI0
aI0
aI0
aI0
aI0
aI0
asS'_class'
p21
S'0'
p22
sS'_set'
p23
S'NoSet'
p24
sbsS'_radius'
p25
I10
sbag6
(g7
g8
Ntp26
Rp27
(dp28
g12
I00
sg16
(isensory_neural_block
RbfKnowledge
p29
(dp30
g19
(lp31
I0
aI14
aI1
aI0
aI0
aI4
aI1
aI0
aI0
aI4
aI1
aI0
aI0
aI12
aI1
aI0
aI0
aI0
aI0
aI0
aI0
aI0
aI0
aI0
aI0
aI0
aI0
aI0
aI0
aI0
aI0
aI0
aI0
aI0
aI0
aI0
aI0
aI0
aI0
aI0
aI0
aI0
aI0
aI0
aI0
aI0
aI0
aI0
aI0
aI0
aI0
aI0
aI0
aI0
aI0
aI0
aI0
aI0
aI0
aI0
aI0
aI0
aI0
aI0
asg21
S'1'
p32
sg23
S'NoSet'
p33
sbsg25
I10
sg14
I01
sbag6
(g7
g8
Ntp34
Rp35
(dp36
g12
I00
sg16
Nsg25
I24
sg14
I00
sbag6
(g7
g8
Ntp37
Rp38
(dp39
g12
I00
sg16
Nsg25
I24
sg14
I00
sbag6
(g7
g8
Ntp40
Rp41
(dp42
g12
I00
sg16
Nsg25
I24
sg14
I00
sbag6
(g7
g8
Ntp43
Rp44
(dp45
g12
I00
sg16
Nsg25
I24
sg14
I00
sbag6
(g7
g8
Ntp46
Rp47
(dp48
g12
I00
sg16
Nsg25
I24
sg14
I00
sbag6
(g7
g8
Ntp49
Rp50
(dp51
g12
I00
sg16
Nsg25
I24
sg14
I00
sbag6
(g7
g8
Ntp52
Rp53
(dp54
g12
I00
sg16
Nsg25
I24
sg14
I00
sbag6
(g7
g8
Ntp55
Rp56
(dp57
g12
I00
sg16
Nsg25
I24
sg14
I00
sbag6
(g7
g8
Ntp58
Rp59
(dp60
g12
I00
sg16
Nsg25
I24
sg14
I00
sbag6
(g7
g8
Ntp61
Rp62
(dp63
g12
I00
sg16
Nsg25
I24
sg14
I00
sbag6
(g7
g8
Ntp64
Rp65
(dp66
g12
I00
sg16
Nsg25
I24
sg14
I00
sbag6
(g7
g8
Ntp67
Rp68
(dp69
g12
I00
sg16
Nsg25
I24
sg14
I00
sbag6
(g7
g8
Ntp70
Rp71
(dp72
g12
I00
sg16
Nsg25
I24
sg14
I00
sbag6
(g7
g8
Ntp73
Rp74
(dp75
g12
I00
sg16
Nsg25
I24
sg14
I00
sbag6
(g7
g8
Ntp76
Rp77
(dp78
g12
I00
sg16
Nsg25
I24
sg14
I00
sbag6
(g7
g8
Ntp79
Rp80
(dp81
g12
I00
sg16
Nsg25
I24
sg14
I00
sbag6
(g7
g8
Ntp82
Rp83
(dp84
g12
I00
sg16
Nsg25
I24
sg14
I00
sbag6
(g7
g8
Ntp85
Rp86
(dp87
g12
I00
sg16
Nsg25
I24
sg14
I00
sbag6
(g7
g8
Ntp88
Rp89
(dp90
g12
I00
sg16
Nsg25
I24
sg14
I00
sbag6
(g7
g8
Ntp91
Rp92
(dp93
g12
I00
sg16
Nsg25
I24
sg14
I00
sbag6
(g7
g8
Ntp94
Rp95
(dp96
g12
I00
sg16
Nsg25
I24
sg14
I00
sbag6
(g7
g8
Ntp97
Rp98
(dp99
g12
I00
sg16
Nsg25
I24
sg14
I00
sbag6
(g7
g8
Ntp100
Rp101
(dp102
g12
I00
sg16
Nsg25
I24
sg14
I00
sbag6
(g7
g8
Ntp103
Rp104
(dp105
g12
I00
sg16
Nsg25
I24
sg14
I00
sbag6
(g7
g8
Ntp106
Rp107
(dp108
g12
I00
sg16
Nsg25
I24
sg14
I00
sbag6
(g7
g8
Ntp109
Rp110
(dp111
g12
I00
sg16
Nsg25
I24
sg14
I00
sbag6
(g7
g8
Ntp112
Rp113
(dp114
g12
I00
sg16
Nsg25
I24
sg14
I00
sbag6
(g7
g8
Ntp115
Rp116
(dp117
g12
I00
sg16
Nsg25
I24
sg14
I00
sbag6
(g7
g8
Ntp118
Rp119
(dp120
g12
I00
sg16
Nsg25
I24
sg14
I00
sbag6
(g7
g8
Ntp121
Rp122
(dp123
g12
I00
sg16
Nsg25
I24
sg14
I00
sbag6
(g7
g8
Ntp124
Rp125
(dp126
g12
I00
sg16
Nsg25
I24
sg14
I00
sbag6
(g7
g8
Ntp127
Rp128
(dp129
g12
I00
sg16
Nsg25
I24
sg14
I00
sbag6
(g7
g8
Ntp130
Rp131
(dp132
g12
I00
sg16
Nsg25
I24
sg14
I00
sbag6
(g7
g8
Ntp133
Rp134
(dp135
g12
I00
sg16
Nsg25
I24
sg14
I00
sbag6
(g7
g8
Ntp136
Rp137
(dp138
g12
I00
sg16
Nsg25
I24
sg14
I00
sbag6
(g7
g8
Ntp139
Rp140
(dp141
g12
I00
sg16
Nsg25
I24
sg14
I00
sbag6
(g7
g8
Ntp142
Rp143
(dp144
g12
I00
sg16
Nsg25
I24
sg14
I00
sbag6
(g7
g8
Ntp145
Rp146
(dp147
g12
I00
sg16
Nsg25
I24
sg14
I00
sbag6
(g7
g8
Ntp148
Rp149
(dp150
g12
I00
sg16
Nsg25
I24
sg14
I00
sbag6
(g7
g8
Ntp151
Rp152
(dp153
g12
I00
sg16
Nsg25
I24
sg14
I00
sbag6
(g7
g8
Ntp154
Rp155
(dp156
g12
I00
sg16
Nsg25
I24
sg14
I00
sbag6
(g7
g8
Ntp157
Rp158
(dp159
g12
I00
sg16
Nsg25
I24
sg14
I00
sbag6
(g7
g8
Ntp160
Rp161
(dp162
g12
I00
sg16
Nsg25
I24
sg14
I00
sbag6
(g7
g8
Ntp163
Rp164
(dp165
g12
I00
sg16
Nsg25
I24
sg14
I00
sbag6
(g7
g8
Ntp166
Rp167
(dp168
g12
I00
sg16
Nsg25
I24
sg14
I00
sbag6
(g7
g8
Ntp169
Rp170
(dp171
g12
I00
sg16
Nsg25
I24
sg14
I00
sbag6
(g7
g8
Ntp172
Rp173
(dp174
g12
I00
sg16
Nsg25
I24
sg14
I00
sbag6
(g7
g8
Ntp175
Rp176
(dp177
g12
I00
sg16
Nsg25
I24
sg14
I00
sbag6
(g7
g8
Ntp178
Rp179
(dp180
g12
I00
sg16
Nsg25
I24
sg14
I00
sbag6
(g7
g8
Ntp181
Rp182
(dp183
g12
I00
sg16
Nsg25
I24
sg14
I00
sbag6
(g7
g8
Ntp184
Rp185
(dp186
g12
I00
sg16
Nsg25
I24
sg14
I00
sbag6
(g7
g8
Ntp187
Rp188
(dp189
g12
I00
sg16
Nsg25
I24
sg14
I00
sbag6
(g7
g8
Ntp190
Rp191
(dp192
g12
I00
sg16
Nsg25
I24
sg14
I00
sbag6
(g7
g8
Ntp193
Rp194
(dp195
g12
I00
sg16
Nsg25
I24
sg14
I00
sbag6
(g7
g8
Ntp196
Rp197
(dp198
g12
I00
sg16
Nsg25
I24
sg14
I00
sbag6
(g7
g8
Ntp199
Rp200
(dp201
g12
I00
sg16
Nsg25
I24
sg14
I00
sbag6
(g7
g8
Ntp202
Rp203
(dp204
g12
I00
sg16
Nsg25
I24
sg14
I00
sbag6
(g7
g8
Ntp205
Rp206
(dp207
g12
I00
sg16
Nsg25
I24
sg14
I00
sbag6
(g7
g8
Ntp208
Rp209
(dp210
g12
I00
sg16
Nsg25
I24
sg14
I00
sbag6
(g7
g8
Ntp211
Rp212
(dp213
g12
I00
sg16
Nsg25
I24
sg14
I00
sbag6
(g7
g8
Ntp214
Rp215
(dp216
g12
I00
sg16
Nsg25
I24
sg14
I00
sbag6
(g7
g8
Ntp217
Rp218
(dp219
g12
I00
sg16
Nsg25
I24
sg14
I00
sbag6
(g7
g8
Ntp220
Rp221
(dp222
g12
I00
sg16
Nsg25
I24
sg14
I00
sbag6
(g7
g8
Ntp223
Rp224
(dp225
g12
I00
sg16
Nsg25
I24
sg14
I00
sbag6
(g7
g8
Ntp226
Rp227
(dp228
g12
I00
sg16
Nsg25
I24
sg14
I00
sbag6
(g7
g8
Ntp229
Rp230
(dp231
g12
I00
sg16
Nsg25
I24
sg14
I00
sbag6
(g7
g8
Ntp232
Rp233
(dp234
g12
I00
sg16
Nsg25
I24
sg14
I00
sbag6
(g7
g8
Ntp235
Rp236
(dp237
g12
I00
sg16
Nsg25
I24
sg14
I00
sbag6
(g7
g8
Ntp238
Rp239
(dp240
g12
I00
sg16
Nsg25
I24
sg14
I00
sbag6
(g7
g8
Ntp241
Rp242
(dp243
g12
I00
sg16
Nsg25
I24
sg14
I00
sbag6
(g7
g8
Ntp244
Rp245
(dp246
g12
I00
sg16
Nsg25
I24
sg14
I00
sbag6
(g7
g8
Ntp247
Rp248
(dp249
g12
I00
sg16
Nsg25
I24
sg14
I00
sbag6
(g7
g8
Ntp250
Rp251
(dp252
g12
I00
sg16
Nsg25
I24
sg14
I00
sbag6
(g7
g8
Ntp253
Rp254
(dp255
g12
I00
sg16
Nsg25
I24
sg14
I00
sbag6
(g7
g8
Ntp256
Rp257
(dp258
g12
I00
sg16
Nsg25
I24
sg14
I00
sbag6
(g7
g8
Ntp259
Rp260
(dp261
g12
I00
sg16
Nsg25
I24
sg14
I00
sbag6
(g7
g8
Ntp262
Rp263
(dp264
g12
I00
sg16
Nsg25
I24
sg14
I00
sbag6
(g7
g8
Ntp265
Rp266
(dp267
g12
I00
sg16
Nsg25
I24
sg14
I00
sbag6
(g7
g8
Ntp268
Rp269
(dp270
g12
I00
sg16
Nsg25
I24
sg14
I00
sbag6
(g7
g8
Ntp271
Rp272
(dp273
g12
I00
sg16
Nsg25
I24
sg14
I00
sbag6
(g7
g8
Ntp274
Rp275
(dp276
g12
I00
sg16
Nsg25
I24
sg14
I00
sbag6
(g7
g8
Ntp277
Rp278
(dp279
g12
I00
sg16
Nsg25
I24
sg14
I00
sbag6
(g7
g8
Ntp280
Rp281
(dp282
g12
I00
sg16
Nsg25
I24
sg14
I00
sbag6
(g7
g8
Ntp283
Rp284
(dp285
g12
I00
sg16
Nsg25
I24
sg14
I00
sbag6
(g7
g8
Ntp286
Rp287
(dp288
g12
I00
sg16
Nsg25
I24
sg14
I00
sbag6
(g7
g8
Ntp289
Rp290
(dp291
g12
I00
sg16
Nsg25
I24
sg14
I00
sbag6
(g7
g8
Ntp292
Rp293
(dp294
g12
I00
sg16
Nsg25
I24
sg14
I00
sbag6
(g7
g8
Ntp295
Rp296
(dp297
g12
I00
sg16
Nsg25
I24
sg14
I00
sbag6
(g7
g8
Ntp298
Rp299
(dp300
g12
I00
sg16
Nsg25
I24
sg14
I00
sbag6
(g7
g8
Ntp301
Rp302
(dp303
g12
I00
sg16
Nsg25
I24
sg14
I00
sbag6
(g7
g8
Ntp304
Rp305
(dp306
g12
I00
sg16
Nsg25
I24
sg14
I00
sbag6
(g7
g8
Ntp307
Rp308
(dp309
g12
I00
sg16
Nsg25
I24
sg14
I00
sbag6
(g7
g8
Ntp310
Rp311
(dp312
g12
I00
sg16
Nsg25
I24
sg14
I00
sbag6
(g7
g8
Ntp313
Rp314
(dp315
g12
I00
sg16
Nsg25
I24
sg14
I00
sbag6
(g7
g8
Ntp316
Rp317
(dp318
g12
I00
sg16
Nsg25
I24
sg14
I00
sbag6
(g7
g8
Ntp319
Rp320
(dp321
g12
I00
sg16
Nsg25
I24
sg14
I00
sbag6
(g7
g8
Ntp322
Rp323
(dp324
g12
I00
sg16
Nsg25
I24
sg14
I00
sbag6
(g7
g8
Ntp325
Rp326
(dp327
g12
I00
sg16
Nsg25
I24
sg14
I00
sbasS'_index_recognize'
p328
(lp329
sS'_index_ready_to_learn'
p330
I2
sS'_last_learned_id'
p331
I1
sb.