(irel_network
RelNetwork
p0
(dp1
S'neuron_list'
p2
(lp3
ccopy_reg
_reconstructor
p4
(crel_network
RelNeuron
p5
c__builtin__
object
p6
Ntp7
Rp8
(dp9
S'_hit'
p10
I00
sS'_knowledge'
p11
NsS'_has_knowledge'
p12
I00
sbag4
(g5
g6
Ntp13
Rp14
(dp15
g10
I00
sg11
Nsg12
I00
sbag4
(g5
g6
Ntp16
Rp17
(dp18
g10
I00
sg11
Nsg12
I00
sbag4
(g5
g6
Ntp19
Rp20
(dp21
g10
I00
sg11
Nsg12
I00
sbag4
(g5
g6
Ntp22
Rp23
(dp24
g10
I00
sg11
Nsg12
I00
sbag4
(g5
g6
Ntp25
Rp26
(dp27
g10
I00
sg11
Nsg12
I00
sbag4
(g5
g6
Ntp28
Rp29
(dp30
g10
I00
sg11
Nsg12
I00
sbag4
(g5
g6
Ntp31
Rp32
(dp33
g10
I00
sg11
Nsg12
I00
sbag4
(g5
g6
Ntp34
Rp35
(dp36
g10
I00
sg11
Nsg12
I00
sbag4
(g5
g6
Ntp37
Rp38
(dp39
g10
I00
sg11
Nsg12
I00
sbag4
(g5
g6
Ntp40
Rp41
(dp42
g10
I00
sg11
Nsg12
I00
sbag4
(g5
g6
Ntp43
Rp44
(dp45
g10
I00
sg11
Nsg12
I00
sbag4
(g5
g6
Ntp46
Rp47
(dp48
g10
I00
sg11
Nsg12
I00
sbag4
(g5
g6
Ntp49
Rp50
(dp51
g10
I00
sg11
Nsg12
I00
sbag4
(g5
g6
Ntp52
Rp53
(dp54
g10
I00
sg11
Nsg12
I00
sbag4
(g5
g6
Ntp55
Rp56
(dp57
g10
I00
sg11
Nsg12
I00
sbag4
(g5
g6
Ntp58
Rp59
(dp60
g10
I00
sg11
Nsg12
I00
sbag4
(g5
g6
Ntp61
Rp62
(dp63
g10
I00
sg11
Nsg12
I00
sbag4
(g5
g6
Ntp64
Rp65
(dp66
g10
I00
sg11
Nsg12
I00
sbag4
(g5
g6
Ntp67
Rp68
(dp69
g10
I00
sg11
Nsg12
I00
sbag4
(g5
g6
Ntp70
Rp71
(dp72
g10
I00
sg11
Nsg12
I00
sbag4
(g5
g6
Ntp73
Rp74
(dp75
g10
I00
sg11
Nsg12
I00
sbag4
(g5
g6
Ntp76
Rp77
(dp78
g10
I00
sg11
Nsg12
I00
sbag4
(g5
g6
Ntp79
Rp80
(dp81
g10
I00
sg11
Nsg12
I00
sbag4
(g5
g6
Ntp82
Rp83
(dp84
g10
I00
sg11
Nsg12
I00
sbag4
(g5
g6
Ntp85
Rp86
(dp87
g10
I00
sg11
Nsg12
I00
sbag4
(g5
g6
Ntp88
Rp89
(dp90
g10
I00
sg11
Nsg12
I00
sbag4
(g5
g6
Ntp91
Rp92
(dp93
g10
I00
sg11
Nsg12
I00
sbag4
(g5
g6
Ntp94
Rp95
(dp96
g10
I00
sg11
Nsg12
I00
sbag4
(g5
g6
Ntp97
Rp98
(dp99
g10
I00
sg11
Nsg12
I00
sbag4
(g5
g6
Ntp100
Rp101
(dp102
g10
I00
sg11
Nsg12
I00
sbag4
(g5
g6
Ntp103
Rp104
(dp105
g10
I00
sg11
Nsg12
I00
sbag4
(g5
g6
Ntp106
Rp107
(dp108
g10
I00
sg11
Nsg12
I00
sbag4
(g5
g6
Ntp109
Rp110
(dp111
g10
I00
sg11
Nsg12
I00
sbag4
(g5
g6
Ntp112
Rp113
(dp114
g10
I00
sg11
Nsg12
I00
sbag4
(g5
g6
Ntp115
Rp116
(dp117
g10
I00
sg11
Nsg12
I00
sbag4
(g5
g6
Ntp118
Rp119
(dp120
g10
I00
sg11
Nsg12
I00
sbag4
(g5
g6
Ntp121
Rp122
(dp123
g10
I00
sg11
Nsg12
I00
sbag4
(g5
g6
Ntp124
Rp125
(dp126
g10
I00
sg11
Nsg12
I00
sbag4
(g5
g6
Ntp127
Rp128
(dp129
g10
I00
sg11
Nsg12
I00
sbag4
(g5
g6
Ntp130
Rp131
(dp132
g10
I00
sg11
Nsg12
I00
sbag4
(g5
g6
Ntp133
Rp134
(dp135
g10
I00
sg11
Nsg12
I00
sbag4
(g5
g6
Ntp136
Rp137
(dp138
g10
I00
sg11
Nsg12
I00
sbag4
(g5
g6
Ntp139
Rp140
(dp141
g10
I00
sg11
Nsg12
I00
sbag4
(g5
g6
Ntp142
Rp143
(dp144
g10
I00
sg11
Nsg12
I00
sbag4
(g5
g6
Ntp145
Rp146
(dp147
g10
I00
sg11
Nsg12
I00
sbag4
(g5
g6
Ntp148
Rp149
(dp150
g10
I00
sg11
Nsg12
I00
sbag4
(g5
g6
Ntp151
Rp152
(dp153
g10
I00
sg11
Nsg12
I00
sbag4
(g5
g6
Ntp154
Rp155
(dp156
g10
I00
sg11
Nsg12
I00
sbag4
(g5
g6
Ntp157
Rp158
(dp159
g10
I00
sg11
Nsg12
I00
sbag4
(g5
g6
Ntp160
Rp161
(dp162
g10
I00
sg11
Nsg12
I00
sbag4
(g5
g6
Ntp163
Rp164
(dp165
g10
I00
sg11
Nsg12
I00
sbag4
(g5
g6
Ntp166
Rp167
(dp168
g10
I00
sg11
Nsg12
I00
sbag4
(g5
g6
Ntp169
Rp170
(dp171
g10
I00
sg11
Nsg12
I00
sbag4
(g5
g6
Ntp172
Rp173
(dp174
g10
I00
sg11
Nsg12
I00
sbag4
(g5
g6
Ntp175
Rp176
(dp177
g10
I00
sg11
Nsg12
I00
sbag4
(g5
g6
Ntp178
Rp179
(dp180
g10
I00
sg11
Nsg12
I00
sbag4
(g5
g6
Ntp181
Rp182
(dp183
g10
I00
sg11
Nsg12
I00
sbag4
(g5
g6
Ntp184
Rp185
(dp186
g10
I00
sg11
Nsg12
I00
sbag4
(g5
g6
Ntp187
Rp188
(dp189
g10
I00
sg11
Nsg12
I00
sbag4
(g5
g6
Ntp190
Rp191
(dp192
g10
I00
sg11
Nsg12
I00
sbag4
(g5
g6
Ntp193
Rp194
(dp195
g10
I00
sg11
Nsg12
I00
sbag4
(g5
g6
Ntp196
Rp197
(dp198
g10
I00
sg11
Nsg12
I00
sbag4
(g5
g6
Ntp199
Rp200
(dp201
g10
I00
sg11
Nsg12
I00
sbag4
(g5
g6
Ntp202
Rp203
(dp204
g10
I00
sg11
Nsg12
I00
sbag4
(g5
g6
Ntp205
Rp206
(dp207
g10
I00
sg11
Nsg12
I00
sbag4
(g5
g6
Ntp208
Rp209
(dp210
g10
I00
sg11
Nsg12
I00
sbag4
(g5
g6
Ntp211
Rp212
(dp213
g10
I00
sg11
Nsg12
I00
sbag4
(g5
g6
Ntp214
Rp215
(dp216
g10
I00
sg11
Nsg12
I00
sbag4
(g5
g6
Ntp217
Rp218
(dp219
g10
I00
sg11
Nsg12
I00
sbag4
(g5
g6
Ntp220
Rp221
(dp222
g10
I00
sg11
Nsg12
I00
sbag4
(g5
g6
Ntp223
Rp224
(dp225
g10
I00
sg11
Nsg12
I00
sbag4
(g5
g6
Ntp226
Rp227
(dp228
g10
I00
sg11
Nsg12
I00
sbag4
(g5
g6
Ntp229
Rp230
(dp231
g10
I00
sg11
Nsg12
I00
sbag4
(g5
g6
Ntp232
Rp233
(dp234
g10
I00
sg11
Nsg12
I00
sbag4
(g5
g6
Ntp235
Rp236
(dp237
g10
I00
sg11
Nsg12
I00
sbag4
(g5
g6
Ntp238
Rp239
(dp240
g10
I00
sg11
Nsg12
I00
sbag4
(g5
g6
Ntp241
Rp242
(dp243
g10
I00
sg11
Nsg12
I00
sbag4
(g5
g6
Ntp244
Rp245
(dp246
g10
I00
sg11
Nsg12
I00
sbag4
(g5
g6
Ntp247
Rp248
(dp249
g10
I00
sg11
Nsg12
I00
sbag4
(g5
g6
Ntp250
Rp251
(dp252
g10
I00
sg11
Nsg12
I00
sbag4
(g5
g6
Ntp253
Rp254
(dp255
g10
I00
sg11
Nsg12
I00
sbag4
(g5
g6
Ntp256
Rp257
(dp258
g10
I00
sg11
Nsg12
I00
sbag4
(g5
g6
Ntp259
Rp260
(dp261
g10
I00
sg11
Nsg12
I00
sbag4
(g5
g6
Ntp262
Rp263
(dp264
g10
I00
sg11
Nsg12
I00
sbag4
(g5
g6
Ntp265
Rp266
(dp267
g10
I00
sg11
Nsg12
I00
sbag4
(g5
g6
Ntp268
Rp269
(dp270
g10
I00
sg11
Nsg12
I00
sbag4
(g5
g6
Ntp271
Rp272
(dp273
g10
I00
sg11
Nsg12
I00
sbag4
(g5
g6
Ntp274
Rp275
(dp276
g10
I00
sg11
Nsg12
I00
sbag4
(g5
g6
Ntp277
Rp278
(dp279
g10
I00
sg11
Nsg12
I00
sbag4
(g5
g6
Ntp280
Rp281
(dp282
g10
I00
sg11
Nsg12
I00
sbag4
(g5
g6
Ntp283
Rp284
(dp285
g10
I00
sg11
Nsg12
I00
sbag4
(g5
g6
Ntp286
Rp287
(dp288
g10
I00
sg11
Nsg12
I00
sbag4
(g5
g6
Ntp289
Rp290
(dp291
g10
I00
sg11
Nsg12
I00
sbag4
(g5
g6
Ntp292
Rp293
(dp294
g10
I00
sg11
Nsg12
I00
sbag4
(g5
g6
Ntp295
Rp296
(dp297
g10
I00
sg11
Nsg12
I00
sbag4
(g5
g6
Ntp298
Rp299
(dp300
g10
I00
sg11
Nsg12
I00
sbag4
(g5
g6
Ntp301
Rp302
(dp303
g10
I00
sg11
Nsg12
I00
sbag4
(g5
g6
Ntp304
Rp305
(dp306
g10
I00
sg11
Nsg12
I00
sbag4
(g5
g6
Ntp307
Rp308
(dp309
g10
I00
sg11
Nsg12
I00
sbasS'_index_ready_to_learn'
p310
I0
sb.